target datalayout = "e-m:e-p270:32:32-p271:32:32-p272:64:64-i64:64-i128:128-f80:128-n8:16:32:64-S128"
target triple = "x86_64-pc-linux-gnu"

@av1_sinpi_arr_data = external constant [7 x [5 x i32]], align 16

; Function Attrs: nounwind uwtable
define internal i32 @round_shift(i64 noundef %0, i32 noundef %1) #0 {
  %3 = alloca i64, align 8
  %4 = alloca i32, align 4
  store i64 %0, ptr %3, align 8
  store i32 %1, ptr %4, align 4
  %5 = load i64, ptr %3, align 8
  %6 = load i32, ptr %4, align 4
  %7 = sub nsw i32 %6, 1
  %8 = zext i32 %7 to i64
  %9 = shl i64 1, %8
  %10 = add nsw i64 %5, %9
  %11 = load i32, ptr %4, align 4
  %12 = zext i32 %11 to i64
  %13 = ashr i64 %10, %12
  %14 = trunc i64 %13 to i32
  ret i32 %14
}

; Function Attrs: nounwind uwtable
define internal i32 @range_check_value(i32 noundef %0, i8 noundef signext %1) #0 {
  %3 = alloca i32, align 4
  %4 = alloca i8, align 1
  store i32 %0, ptr %3, align 4
  store i8 %1, ptr %4, align 1
  %5 = load i32, ptr %3, align 4
  ret i32 %5
}

; Function Attrs: nounwind uwtable
define internal ptr @sinpi_arr(i32 noundef %0) #0 {
  %2 = alloca i32, align 4
  store i32 %0, ptr %2, align 4
  %3 = load i32, ptr %2, align 4
  %4 = sub nsw i32 %3, 10
  %5 = sext i32 %4 to i64
  %6 = getelementptr inbounds [7 x [5 x i32]], ptr @av1_sinpi_arr_data, i64 0, i64 %5
  %7 = getelementptr inbounds [5 x i32], ptr %6, i64 0, i64 0
  ret ptr %7
}

; Function Attrs: nounwind uwtable
define hidden void @av1_iadst4(ptr noundef %0, ptr noundef %1, i8 noundef signext %2, ptr noundef %3) #0 {
  %5 = alloca ptr, align 8
  %6 = alloca ptr, align 8
  %7 = alloca i8, align 1
  %8 = alloca ptr, align 8
  %9 = alloca i32, align 4
  %10 = alloca ptr, align 8
  %11 = alloca i32, align 4
  %12 = alloca i32, align 4
  %13 = alloca i32, align 4
  %14 = alloca i32, align 4
  %15 = alloca i32, align 4
  %16 = alloca i32, align 4
  %17 = alloca i32, align 4
  %18 = alloca i32, align 4
  %19 = alloca i32, align 4
  %20 = alloca i32, align 4
  %21 = alloca i32, align 4
  %22 = alloca i32, align 4
  store ptr %0, ptr %5, align 8
  store ptr %1, ptr %6, align 8
  store i8 %2, ptr %7, align 1
  store ptr %3, ptr %8, align 8
  %23 = load i8, ptr %7, align 1
  %24 = sext i8 %23 to i32
  store i32 %24, ptr %9, align 4
  %25 = load i32, ptr %9, align 4
  %26 = call ptr @sinpi_arr(i32 noundef %25)
  store ptr %26, ptr %10, align 8
  %27 = load ptr, ptr %5, align 8
  %28 = getelementptr inbounds i32, ptr %27, i64 0
  %29 = load i32, ptr %28, align 4
  store i32 %29, ptr %19, align 4
  %30 = load ptr, ptr %5, align 8
  %31 = getelementptr inbounds i32, ptr %30, i64 1
  %32 = load i32, ptr %31, align 4
  store i32 %32, ptr %20, align 4
  %33 = load ptr, ptr %5, align 8
  %34 = getelementptr inbounds i32, ptr %33, i64 2
  %35 = load i32, ptr %34, align 4
  store i32 %35, ptr %21, align 4
  %36 = load ptr, ptr %5, align 8
  %37 = getelementptr inbounds i32, ptr %36, i64 3
  %38 = load i32, ptr %37, align 4
  store i32 %38, ptr %22, align 4
  %39 = load i32, ptr %19, align 4
  %40 = load i32, ptr %20, align 4
  %41 = or i32 %39, %40
  %42 = load i32, ptr %21, align 4
  %43 = or i32 %41, %42
  %44 = load i32, ptr %22, align 4
  %45 = or i32 %43, %44
  %46 = icmp ne i32 %45, 0
  br i1 %46, label %56, label %47

47:                                               ; preds = %4
  %48 = load ptr, ptr %6, align 8
  %49 = getelementptr inbounds i32, ptr %48, i64 3
  store i32 0, ptr %49, align 4
  %50 = load ptr, ptr %6, align 8
  %51 = getelementptr inbounds i32, ptr %50, i64 2
  store i32 0, ptr %51, align 4
  %52 = load ptr, ptr %6, align 8
  %53 = getelementptr inbounds i32, ptr %52, i64 1
  store i32 0, ptr %53, align 4
  %54 = load ptr, ptr %6, align 8
  %55 = getelementptr inbounds i32, ptr %54, i64 0
  store i32 0, ptr %55, align 4
  br label %300

56:                                               ; preds = %4
  %57 = load ptr, ptr %10, align 8
  %58 = getelementptr inbounds i32, ptr %57, i64 1
  %59 = load i32, ptr %58, align 4
  %60 = load i32, ptr %19, align 4
  %61 = mul nsw i32 %59, %60
  %62 = load ptr, ptr %8, align 8
  %63 = getelementptr inbounds i8, ptr %62, i64 1
  %64 = load i8, ptr %63, align 1
  %65 = sext i8 %64 to i32
  %66 = load i32, ptr %9, align 4
  %67 = add nsw i32 %65, %66
  %68 = trunc i32 %67 to i8
  %69 = call i32 @range_check_value(i32 noundef %61, i8 noundef signext %68)
  store i32 %69, ptr %11, align 4
  %70 = load ptr, ptr %10, align 8
  %71 = getelementptr inbounds i32, ptr %70, i64 2
  %72 = load i32, ptr %71, align 4
  %73 = load i32, ptr %19, align 4
  %74 = mul nsw i32 %72, %73
  %75 = load ptr, ptr %8, align 8
  %76 = getelementptr inbounds i8, ptr %75, i64 1
  %77 = load i8, ptr %76, align 1
  %78 = sext i8 %77 to i32
  %79 = load i32, ptr %9, align 4
  %80 = add nsw i32 %78, %79
  %81 = trunc i32 %80 to i8
  %82 = call i32 @range_check_value(i32 noundef %74, i8 noundef signext %81)
  store i32 %82, ptr %12, align 4
  %83 = load ptr, ptr %10, align 8
  %84 = getelementptr inbounds i32, ptr %83, i64 3
  %85 = load i32, ptr %84, align 4
  %86 = load i32, ptr %20, align 4
  %87 = mul nsw i32 %85, %86
  %88 = load ptr, ptr %8, align 8
  %89 = getelementptr inbounds i8, ptr %88, i64 1
  %90 = load i8, ptr %89, align 1
  %91 = sext i8 %90 to i32
  %92 = load i32, ptr %9, align 4
  %93 = add nsw i32 %91, %92
  %94 = trunc i32 %93 to i8
  %95 = call i32 @range_check_value(i32 noundef %87, i8 noundef signext %94)
  store i32 %95, ptr %13, align 4
  %96 = load ptr, ptr %10, align 8
  %97 = getelementptr inbounds i32, ptr %96, i64 4
  %98 = load i32, ptr %97, align 4
  %99 = load i32, ptr %21, align 4
  %100 = mul nsw i32 %98, %99
  %101 = load ptr, ptr %8, align 8
  %102 = getelementptr inbounds i8, ptr %101, i64 1
  %103 = load i8, ptr %102, align 1
  %104 = sext i8 %103 to i32
  %105 = load i32, ptr %9, align 4
  %106 = add nsw i32 %104, %105
  %107 = trunc i32 %106 to i8
  %108 = call i32 @range_check_value(i32 noundef %100, i8 noundef signext %107)
  store i32 %108, ptr %14, align 4
  %109 = load ptr, ptr %10, align 8
  %110 = getelementptr inbounds i32, ptr %109, i64 1
  %111 = load i32, ptr %110, align 4
  %112 = load i32, ptr %21, align 4
  %113 = mul nsw i32 %111, %112
  %114 = load ptr, ptr %8, align 8
  %115 = getelementptr inbounds i8, ptr %114, i64 1
  %116 = load i8, ptr %115, align 1
  %117 = sext i8 %116 to i32
  %118 = load i32, ptr %9, align 4
  %119 = add nsw i32 %117, %118
  %120 = trunc i32 %119 to i8
  %121 = call i32 @range_check_value(i32 noundef %113, i8 noundef signext %120)
  store i32 %121, ptr %15, align 4
  %122 = load ptr, ptr %10, align 8
  %123 = getelementptr inbounds i32, ptr %122, i64 2
  %124 = load i32, ptr %123, align 4
  %125 = load i32, ptr %22, align 4
  %126 = mul nsw i32 %124, %125
  %127 = load ptr, ptr %8, align 8
  %128 = getelementptr inbounds i8, ptr %127, i64 1
  %129 = load i8, ptr %128, align 1
  %130 = sext i8 %129 to i32
  %131 = load i32, ptr %9, align 4
  %132 = add nsw i32 %130, %131
  %133 = trunc i32 %132 to i8
  %134 = call i32 @range_check_value(i32 noundef %126, i8 noundef signext %133)
  store i32 %134, ptr %16, align 4
  %135 = load ptr, ptr %10, align 8
  %136 = getelementptr inbounds i32, ptr %135, i64 4
  %137 = load i32, ptr %136, align 4
  %138 = load i32, ptr %22, align 4
  %139 = mul nsw i32 %137, %138
  %140 = load ptr, ptr %8, align 8
  %141 = getelementptr inbounds i8, ptr %140, i64 1
  %142 = load i8, ptr %141, align 1
  %143 = sext i8 %142 to i32
  %144 = load i32, ptr %9, align 4
  %145 = add nsw i32 %143, %144
  %146 = trunc i32 %145 to i8
  %147 = call i32 @range_check_value(i32 noundef %139, i8 noundef signext %146)
  store i32 %147, ptr %17, align 4
  %148 = load i32, ptr %19, align 4
  %149 = load i32, ptr %21, align 4
  %150 = sub nsw i32 %148, %149
  %151 = load i32, ptr %22, align 4
  %152 = add nsw i32 %150, %151
  %153 = load ptr, ptr %8, align 8
  %154 = getelementptr inbounds i8, ptr %153, i64 2
  %155 = load i8, ptr %154, align 1
  %156 = call i32 @range_check_value(i32 noundef %152, i8 noundef signext %155)
  store i32 %156, ptr %18, align 4
  %157 = load i32, ptr %11, align 4
  %158 = load i32, ptr %14, align 4
  %159 = add nsw i32 %157, %158
  %160 = load ptr, ptr %8, align 8
  %161 = getelementptr inbounds i8, ptr %160, i64 3
  %162 = load i8, ptr %161, align 1
  %163 = sext i8 %162 to i32
  %164 = load i32, ptr %9, align 4
  %165 = add nsw i32 %163, %164
  %166 = trunc i32 %165 to i8
  %167 = call i32 @range_check_value(i32 noundef %159, i8 noundef signext %166)
  store i32 %167, ptr %11, align 4
  %168 = load i32, ptr %12, align 4
  %169 = load i32, ptr %15, align 4
  %170 = sub nsw i32 %168, %169
  %171 = load ptr, ptr %8, align 8
  %172 = getelementptr inbounds i8, ptr %171, i64 3
  %173 = load i8, ptr %172, align 1
  %174 = sext i8 %173 to i32
  %175 = load i32, ptr %9, align 4
  %176 = add nsw i32 %174, %175
  %177 = trunc i32 %176 to i8
  %178 = call i32 @range_check_value(i32 noundef %170, i8 noundef signext %177)
  store i32 %178, ptr %12, align 4
  %179 = load i32, ptr %13, align 4
  %180 = load ptr, ptr %8, align 8
  %181 = getelementptr inbounds i8, ptr %180, i64 3
  %182 = load i8, ptr %181, align 1
  %183 = sext i8 %182 to i32
  %184 = load i32, ptr %9, align 4
  %185 = add nsw i32 %183, %184
  %186 = trunc i32 %185 to i8
  %187 = call i32 @range_check_value(i32 noundef %179, i8 noundef signext %186)
  store i32 %187, ptr %14, align 4
  %188 = load ptr, ptr %10, align 8
  %189 = getelementptr inbounds i32, ptr %188, i64 3
  %190 = load i32, ptr %189, align 4
  %191 = load i32, ptr %18, align 4
  %192 = mul nsw i32 %190, %191
  %193 = load ptr, ptr %8, align 8
  %194 = getelementptr inbounds i8, ptr %193, i64 3
  %195 = load i8, ptr %194, align 1
  %196 = sext i8 %195 to i32
  %197 = load i32, ptr %9, align 4
  %198 = add nsw i32 %196, %197
  %199 = trunc i32 %198 to i8
  %200 = call i32 @range_check_value(i32 noundef %192, i8 noundef signext %199)
  store i32 %200, ptr %13, align 4
  %201 = load i32, ptr %11, align 4
  %202 = load i32, ptr %16, align 4
  %203 = add nsw i32 %201, %202
  %204 = load ptr, ptr %8, align 8
  %205 = getelementptr inbounds i8, ptr %204, i64 4
  %206 = load i8, ptr %205, align 1
  %207 = sext i8 %206 to i32
  %208 = load i32, ptr %9, align 4
  %209 = add nsw i32 %207, %208
  %210 = trunc i32 %209 to i8
  %211 = call i32 @range_check_value(i32 noundef %203, i8 noundef signext %210)
  store i32 %211, ptr %11, align 4
  %212 = load i32, ptr %12, align 4
  %213 = load i32, ptr %17, align 4
  %214 = sub nsw i32 %212, %213
  %215 = load ptr, ptr %8, align 8
  %216 = getelementptr inbounds i8, ptr %215, i64 4
  %217 = load i8, ptr %216, align 1
  %218 = sext i8 %217 to i32
  %219 = load i32, ptr %9, align 4
  %220 = add nsw i32 %218, %219
  %221 = trunc i32 %220 to i8
  %222 = call i32 @range_check_value(i32 noundef %214, i8 noundef signext %221)
  store i32 %222, ptr %12, align 4
  %223 = load i32, ptr %11, align 4
  %224 = load i32, ptr %14, align 4
  %225 = add nsw i32 %223, %224
  %226 = load ptr, ptr %8, align 8
  %227 = getelementptr inbounds i8, ptr %226, i64 5
  %228 = load i8, ptr %227, align 1
  %229 = sext i8 %228 to i32
  %230 = load i32, ptr %9, align 4
  %231 = add nsw i32 %229, %230
  %232 = trunc i32 %231 to i8
  %233 = call i32 @range_check_value(i32 noundef %225, i8 noundef signext %232)
  store i32 %233, ptr %19, align 4
  %234 = load i32, ptr %12, align 4
  %235 = load i32, ptr %14, align 4
  %236 = add nsw i32 %234, %235
  %237 = load ptr, ptr %8, align 8
  %238 = getelementptr inbounds i8, ptr %237, i64 5
  %239 = load i8, ptr %238, align 1
  %240 = sext i8 %239 to i32
  %241 = load i32, ptr %9, align 4
  %242 = add nsw i32 %240, %241
  %243 = trunc i32 %242 to i8
  %244 = call i32 @range_check_value(i32 noundef %236, i8 noundef signext %243)
  store i32 %244, ptr %20, align 4
  %245 = load i32, ptr %13, align 4
  %246 = load ptr, ptr %8, align 8
  %247 = getelementptr inbounds i8, ptr %246, i64 5
  %248 = load i8, ptr %247, align 1
  %249 = sext i8 %248 to i32
  %250 = load i32, ptr %9, align 4
  %251 = add nsw i32 %249, %250
  %252 = trunc i32 %251 to i8
  %253 = call i32 @range_check_value(i32 noundef %245, i8 noundef signext %252)
  store i32 %253, ptr %21, align 4
  %254 = load i32, ptr %11, align 4
  %255 = load i32, ptr %12, align 4
  %256 = add nsw i32 %254, %255
  %257 = load ptr, ptr %8, align 8
  %258 = getelementptr inbounds i8, ptr %257, i64 5
  %259 = load i8, ptr %258, align 1
  %260 = sext i8 %259 to i32
  %261 = load i32, ptr %9, align 4
  %262 = add nsw i32 %260, %261
  %263 = trunc i32 %262 to i8
  %264 = call i32 @range_check_value(i32 noundef %256, i8 noundef signext %263)
  store i32 %264, ptr %22, align 4
  %265 = load i32, ptr %22, align 4
  %266 = load i32, ptr %14, align 4
  %267 = sub nsw i32 %265, %266
  %268 = load ptr, ptr %8, align 8
  %269 = getelementptr inbounds i8, ptr %268, i64 6
  %270 = load i8, ptr %269, align 1
  %271 = sext i8 %270 to i32
  %272 = load i32, ptr %9, align 4
  %273 = add nsw i32 %271, %272
  %274 = trunc i32 %273 to i8
  %275 = call i32 @range_check_value(i32 noundef %267, i8 noundef signext %274)
  store i32 %275, ptr %22, align 4
  %276 = load i32, ptr %19, align 4
  %277 = sext i32 %276 to i64
  %278 = load i32, ptr %9, align 4
  %279 = call i32 @round_shift(i64 noundef %277, i32 noundef %278)
  %280 = load ptr, ptr %6, align 8
  %281 = getelementptr inbounds i32, ptr %280, i64 0
  store i32 %279, ptr %281, align 4
  %282 = load i32, ptr %20, align 4
  %283 = sext i32 %282 to i64
  %284 = load i32, ptr %9, align 4
  %285 = call i32 @round_shift(i64 noundef %283, i32 noundef %284)
  %286 = load ptr, ptr %6, align 8
  %287 = getelementptr inbounds i32, ptr %286, i64 1
  store i32 %285, ptr %287, align 4
  %288 = load i32, ptr %21, align 4
  %289 = sext i32 %288 to i64
  %290 = load i32, ptr %9, align 4
  %291 = call i32 @round_shift(i64 noundef %289, i32 noundef %290)
  %292 = load ptr, ptr %6, align 8
  %293 = getelementptr inbounds i32, ptr %292, i64 2
  store i32 %291, ptr %293, align 4
  %294 = load i32, ptr %22, align 4
  %295 = sext i32 %294 to i64
  %296 = load i32, ptr %9, align 4
  %297 = call i32 @round_shift(i64 noundef %295, i32 noundef %296)
  %298 = load ptr, ptr %6, align 8
  %299 = getelementptr inbounds i32, ptr %298, i64 3
  store i32 %297, ptr %299, align 4
  br label %300

300:                                              ; preds = %56, %47
  ret void
}