; Function Attrs: mustprogress nofree norecurse nosync nounwind willreturn memory(argmem: readwrite) uwtable
define hidden void @av1_iadst4(ptr nocapture noundef readonly %0, ptr nocapture noundef writeonly %1, i8 noundef signext %2, ptr nocapture noundef readonly %3) local_unnamed_addr #2 {
  %5 = load i32, ptr %0, align 4
  %6 = getelementptr inbounds i8, ptr %0, i64 4
  %7 = load i32, ptr %6, align 4
  %8 = getelementptr inbounds i8, ptr %0, i64 8
  %9 = load i32, ptr %8, align 4
  %10 = getelementptr inbounds i8, ptr %0, i64 12
  %11 = load i32, ptr %10, align 4
  %12 = or i32 %7, %5
  %13 = or i32 %12, %9
  %14 = or i32 %13, %11
  %.not = icmp eq i32 %14, 0
  br i1 %.not, label %63, label %15

15:                                               ; preds = %4
  %16 = sext i8 %2 to i32
  %17 = add nsw i32 %16, -10
  %18 = sext i32 %17 to i64
  %19 = getelementptr inbounds [7 x [5 x i32]], ptr @av1_sinpi_arr_data, i64 0, i64 %18
  %20 = getelementptr inbounds i8, ptr %19, i64 4
  %21 = load i32, ptr %20, align 4
  %22 = mul nsw i32 %21, %5
  %23 = getelementptr inbounds i8, ptr %19, i64 8
  %24 = load i32, ptr %23, align 4
  %25 = mul nsw i32 %24, %5
  %26 = getelementptr inbounds i8, ptr %19, i64 12
  %27 = load i32, ptr %26, align 4
  %28 = mul nsw i32 %27, %7
  %29 = getelementptr inbounds i8, ptr %19, i64 16
  %30 = load i32, ptr %29, align 4
  %31 = mul nsw i32 %30, %9
  %32 = mul nsw i32 %24, %11
  %33 = sub i32 %5, %9
  %34 = add nsw i32 %33, %11
  %35 = mul nsw i32 %27, %34
  %36 = add i32 %32, %22
  %37 = add i32 %36, %31
  %.neg99 = mul i32 %21, %9
  %.neg100 = mul i32 %30, %11
  %reass.add = add i32 %.neg100, %.neg99
  %38 = sub i32 %25, %reass.add
  %39 = add nsw i32 %37, %28
  %40 = add nsw i32 %38, %28
  %41 = sub i32 %38, %28
  %42 = add i32 %41, %37
  %43 = sext i32 %39 to i64
  %44 = add nsw i32 %16, -1
  %45 = zext nneg i32 %44 to i64
  %46 = shl nuw i64 1, %45
  %47 = add nsw i64 %46, %43
  %48 = zext nneg i32 %16 to i64
  %49 = ashr i64 %47, %48
  %50 = trunc i64 %49 to i32
  %51 = sext i32 %40 to i64
  %52 = add nsw i64 %46, %51
  %53 = ashr i64 %52, %48
  %54 = trunc i64 %53 to i32
  %55 = sext i32 %35 to i64
  %56 = add nsw i64 %46, %55
  %57 = ashr i64 %56, %48
  %58 = trunc i64 %57 to i32
  %59 = sext i32 %42 to i64
  %60 = add nsw i64 %46, %59
  %61 = ashr i64 %60, %48
  %62 = trunc i64 %61 to i32
  br label %63

63:                                               ; preds = %4, %15
  %.sink105 = phi i32 [ %62, %15 ], [ 0, %4 ]
  %.sink104 = phi i32 [ %58, %15 ], [ 0, %4 ]
  %.sink103 = phi i32 [ %54, %15 ], [ 0, %4 ]
  %.sink = phi i32 [ %50, %15 ], [ 0, %4 ]
  %64 = getelementptr inbounds i8, ptr %1, i64 12
  store i32 %.sink105, ptr %64, align 4
  %65 = getelementptr inbounds i8, ptr %1, i64 8
  store i32 %.sink104, ptr %65, align 4
  %66 = getelementptr inbounds i8, ptr %1, i64 4
  store i32 %.sink103, ptr %66, align 4
  store i32 %.sink, ptr %1, align 4
  ret void
}